target datalayout = "e-m:e-p270:32:32-p271:32:32-p272:64:64-i64:64-i128:128-f80:128-n8:16:32:64-S128"
target triple = "x86_64-pc-linux-gnu"

%struct.job_step_specs = type { ptr, ptr, i32, i32, i32, i32, ptr, i16, i16, ptr, ptr, i32, ptr, i16, i64, ptr, ptr, i32, i32, ptr, ptr, i32, i16, i16, i16, i16, i32, ptr, %struct.slurm_step_id_msg, i32, i32, ptr, i32, i32, i16, ptr, ptr, ptr, ptr, ptr, ptr, i32 }
%struct.slurm_step_id_msg = type { i64, i32, i32, i32 }
%struct.slurm_step_ctx_struct = type { i16, i32, ptr, ptr, ptr, i16 }
%struct.job_step_create_response_msg = type { i32, i32, i32, ptr, ptr, ptr, ptr, ptr, ptr, i16 }
%struct.step_launch_state = type { %union.pthread_mutex_t, %union.pthread_cond_t, i32, ptr, ptr, ptr, i64, i8, ptr, i32, i8, i8, i8, i32, ptr, i64, i32, i16, ptr, ptr, ptr, [1 x %struct.mpi_step_info_t], ptr, i32, %struct.slurm_step_launch_callbacks_t }
%union.pthread_mutex_t = type { %struct.__pthread_mutex_s }
%struct.__pthread_mutex_s = type { i32, i32, i32, i32, i32, i16, i16, %struct.__pthread_internal_list }
%struct.__pthread_internal_list = type { ptr, ptr }
%union.pthread_cond_t = type { %struct.__pthread_cond_s }
%struct.__pthread_cond_s = type { %union.__atomic_wide_counter, %union.__atomic_wide_counter, [2 x i32], [2 x i32], i32, i32, [2 x i32] }
%union.__atomic_wide_counter = type { i64 }
%struct.mpi_step_info_t = type { i32, i32, %struct.slurm_step_id_msg, ptr }
%struct.slurm_step_launch_callbacks_t = type { ptr, ptr, ptr, ptr, ptr }
%struct.slurm_step_layout = type { ptr, i32, ptr, ptr, ptr, i32, ptr, i16, i16, ptr, i32, i32, ptr }
%struct.slurm_cred_arg_t = type { %struct.slurm_step_id_msg, i32, i32, ptr, i16, ptr, ptr, ptr, i32, ptr, ptr, ptr, ptr, ptr, ptr, ptr, i16, i64, ptr, ptr, ptr, ptr, ptr, i32, i32, ptr, i32, i16, ptr, ptr, ptr, i16, ptr, i64, ptr, ptr, ptr, i16, ptr, ptr, ptr, ptr, i32, ptr, ptr }

@.str.2 = private unnamed_addr constant [11 x i8] c"step_ctx.c\00", align 1
@.str.3 = private unnamed_addr constant [45 x i8] c"unable to initialize step context socket: %m\00", align 1
@__func__.step_ctx_create_no_alloc = private unnamed_addr constant [25 x i8] c"step_ctx_create_no_alloc\00", align 1
@__func__._job_fake_cred = private unnamed_addr constant [15 x i8] c"_job_fake_cred\00", align 1

; Function Attrs: nounwind uwtable
define internal void @_job_fake_cred(ptr noundef %0) #0 {
  %2 = alloca ptr, align 8
  %3 = alloca i32, align 4
  %4 = alloca ptr, align 8
  store ptr %0, ptr %2, align 8
  call void @llvm.lifetime.start.p0(i64 4, ptr %3) #7
  %5 = load ptr, ptr %2, align 8
  %6 = getelementptr inbounds nuw %struct.slurm_step_ctx_struct, ptr %5, i32 0, i32 3
  %7 = load ptr, ptr %6, align 8
  %8 = getelementptr inbounds nuw %struct.job_step_create_response_msg, ptr %7, i32 0, i32 4
  %9 = load ptr, ptr %8, align 8
  %10 = getelementptr inbounds nuw %struct.slurm_step_layout, ptr %9, i32 0, i32 5
  %11 = load i32, ptr %10, align 8
  store i32 %11, ptr %3, align 4
  call void @llvm.lifetime.start.p0(i64 8, ptr %4) #7
  %12 = call ptr @slurm_xcalloc(i64 noundef 1, i64 noundef 352, i1 noundef zeroext true, i1 noundef zeroext false, ptr noundef @.str.2, i32 noundef 88, ptr noundef @__func__._job_fake_cred)
  store ptr %12, ptr %4, align 8
  %13 = load ptr, ptr %4, align 8
  %14 = getelementptr inbounds nuw %struct.slurm_cred_arg_t, ptr %13, i32 0, i32 0
  %15 = load ptr, ptr %2, align 8
  %16 = getelementptr inbounds nuw %struct.slurm_step_ctx_struct, ptr %15, i32 0, i32 2
  %17 = load ptr, ptr %16, align 8
  %18 = getelementptr inbounds nuw %struct.job_step_specs, ptr %17, i32 0, i32 28
  call void @llvm.memcpy.p0.p0.i64(ptr align 8 %14, ptr align 8 %18, i64 24, i1 false)
  %19 = call i32 @getuid() #7
  %20 = load ptr, ptr %4, align 8
  %21 = getelementptr inbounds nuw %struct.slurm_cred_arg_t, ptr %20, i32 0, i32 1
  store i32 %19, ptr %21, align 8
  %22 = load i32, ptr %3, align 4
  %23 = load ptr, ptr %4, align 8
  %24 = getelementptr inbounds nuw %struct.slurm_cred_arg_t, ptr %23, i32 0, i32 24
  store i32 %22, ptr %24, align 4
  %25 = load ptr, ptr %2, align 8
  %26 = getelementptr inbounds nuw %struct.slurm_step_ctx_struct, ptr %25, i32 0, i32 3
  %27 = load ptr, ptr %26, align 8
  %28 = getelementptr inbounds nuw %struct.job_step_create_response_msg, ptr %27, i32 0, i32 4
  %29 = load ptr, ptr %28, align 8
  %30 = getelementptr inbounds nuw %struct.slurm_step_layout, ptr %29, i32 0, i32 6
  %31 = load ptr, ptr %30, align 8
  %32 = load ptr, ptr %4, align 8
  %33 = getelementptr inbounds nuw %struct.slurm_cred_arg_t, ptr %32, i32 0, i32 19
  store ptr %31, ptr %33, align 8
  %34 = call ptr @slurm_xcalloc(i64 noundef 1, i64 noundef 8, i1 noundef zeroext true, i1 noundef zeroext false, ptr noundef @.str.2, i32 noundef 95, ptr noundef @__func__._job_fake_cred)
  %35 = load ptr, ptr %4, align 8
  %36 = getelementptr inbounds nuw %struct.slurm_cred_arg_t, ptr %35, i32 0, i32 21
  store ptr %34, ptr %36, align 8
  %37 = load ptr, ptr %4, align 8
  %38 = getelementptr inbounds nuw %struct.slurm_cred_arg_t, ptr %37, i32 0, i32 21
  %39 = load ptr, ptr %38, align 8
  %40 = getelementptr inbounds i64, ptr %39, i64 0
  store i64 0, ptr %40, align 8
  %41 = call ptr @slurm_xcalloc(i64 noundef 1, i64 noundef 8, i1 noundef zeroext true, i1 noundef zeroext false, ptr noundef @.str.2, i32 noundef 97, ptr noundef @__func__._job_fake_cred)
  %42 = load ptr, ptr %4, align 8
  %43 = getelementptr inbounds nuw %struct.slurm_cred_arg_t, ptr %42, i32 0, i32 22
  store ptr %41, ptr %43, align 8
  %44 = load i32, ptr %3, align 4
  %45 = load ptr, ptr %4, align 8
  %46 = getelementptr inbounds nuw %struct.slurm_cred_arg_t, ptr %45, i32 0, i32 22
  %47 = load ptr, ptr %46, align 8
  %48 = getelementptr inbounds i32, ptr %47, i64 0
  store i32 %44, ptr %48, align 4
  %49 = load ptr, ptr %4, align 8
  %50 = getelementptr inbounds nuw %struct.slurm_cred_arg_t, ptr %49, i32 0, i32 23
  store i32 1, ptr %50, align 8
  %51 = load ptr, ptr %2, align 8
  %52 = getelementptr inbounds nuw %struct.slurm_step_ctx_struct, ptr %51, i32 0, i32 2
  %53 = load ptr, ptr %52, align 8
  %54 = getelementptr inbounds nuw %struct.job_step_specs, ptr %53, i32 0, i32 20
  %55 = load ptr, ptr %54, align 8
  %56 = load ptr, ptr %4, align 8
  %57 = getelementptr inbounds nuw %struct.slurm_cred_arg_t, ptr %56, i32 0, i32 39
  store ptr %55, ptr %57, align 8
  %58 = call ptr @slurm_xcalloc(i64 noundef 1, i64 noundef 8, i1 noundef zeroext true, i1 noundef zeroext false, ptr noundef @.str.2, i32 noundef 102, ptr noundef @__func__._job_fake_cred)
  %59 = load ptr, ptr %4, align 8
  %60 = getelementptr inbounds nuw %struct.slurm_cred_arg_t, ptr %59, i32 0, i32 40
  store ptr %58, ptr %60, align 8
  %61 = load ptr, ptr %4, align 8
  %62 = getelementptr inbounds nuw %struct.slurm_cred_arg_t, ptr %61, i32 0, i32 40
  %63 = load ptr, ptr %62, align 8
  %64 = getelementptr inbounds i64, ptr %63, i64 0
  store i64 0, ptr %64, align 8
  %65 = call ptr @slurm_xcalloc(i64 noundef 1, i64 noundef 8, i1 noundef zeroext true, i1 noundef zeroext false, ptr noundef @.str.2, i32 noundef 104, ptr noundef @__func__._job_fake_cred)
  %66 = load ptr, ptr %4, align 8
  %67 = getelementptr inbounds nuw %struct.slurm_cred_arg_t, ptr %66, i32 0, i32 41
  store ptr %65, ptr %67, align 8
  %68 = load i32, ptr %3, align 4
  %69 = load ptr, ptr %4, align 8
  %70 = getelementptr inbounds nuw %struct.slurm_cred_arg_t, ptr %69, i32 0, i32 41
  %71 = load ptr, ptr %70, align 8
  %72 = getelementptr inbounds i32, ptr %71, i64 0
  store i32 %68, ptr %72, align 4
  %73 = load ptr, ptr %4, align 8
  %74 = getelementptr inbounds nuw %struct.slurm_cred_arg_t, ptr %73, i32 0, i32 42
  store i32 1, ptr %74, align 8
  %75 = load i32, ptr %3, align 4
  %76 = zext i32 %75 to i64
  %77 = call ptr @bit_alloc(i64 noundef %76)
  %78 = load ptr, ptr %4, align 8
  %79 = getelementptr inbounds nuw %struct.slurm_cred_arg_t, ptr %78, i32 0, i32 15
  store ptr %77, ptr %79, align 8
  %80 = load ptr, ptr %4, align 8
  %81 = getelementptr inbounds nuw %struct.slurm_cred_arg_t, ptr %80, i32 0, i32 15
  %82 = load ptr, ptr %81, align 8
  call void @bit_set_all(ptr noundef %82)
  %83 = load i32, ptr %3, align 4
  %84 = zext i32 %83 to i64
  %85 = call ptr @bit_alloc(i64 noundef %84)
  %86 = load ptr, ptr %4, align 8
  %87 = getelementptr inbounds nuw %struct.slurm_cred_arg_t, ptr %86, i32 0, i32 38
  store ptr %85, ptr %87, align 8
  %88 = load ptr, ptr %4, align 8
  %89 = getelementptr inbounds nuw %struct.slurm_cred_arg_t, ptr %88, i32 0, i32 38
  %90 = load ptr, ptr %89, align 8
  call void @bit_set_all(ptr noundef %90)
  %91 = call ptr @slurm_xcalloc(i64 noundef 1, i64 noundef 2, i1 noundef zeroext true, i1 noundef zeroext false, ptr noundef @.str.2, i32 noundef 113, ptr noundef @__func__._job_fake_cred)
  %92 = load ptr, ptr %4, align 8
  %93 = getelementptr inbounds nuw %struct.slurm_cred_arg_t, ptr %92, i32 0, i32 5
  store ptr %91, ptr %93, align 8
  %94 = load ptr, ptr %4, align 8
  %95 = getelementptr inbounds nuw %struct.slurm_cred_arg_t, ptr %94, i32 0, i32 5
  %96 = load ptr, ptr %95, align 8
  %97 = getelementptr inbounds i16, ptr %96, i64 0
  store i16 1, ptr %97, align 2
  %98 = call ptr @slurm_xcalloc(i64 noundef 1, i64 noundef 2, i1 noundef zeroext true, i1 noundef zeroext false, ptr noundef @.str.2, i32 noundef 115, ptr noundef @__func__._job_fake_cred)
  %99 = load ptr, ptr %4, align 8
  %100 = getelementptr inbounds nuw %struct.slurm_cred_arg_t, ptr %99, i32 0, i32 6
  store ptr %98, ptr %100, align 8
  %101 = load ptr, ptr %4, align 8
  %102 = getelementptr inbounds nuw %struct.slurm_cred_arg_t, ptr %101, i32 0, i32 6
  %103 = load ptr, ptr %102, align 8
  %104 = getelementptr inbounds i16, ptr %103, i64 0
  store i16 1, ptr %104, align 2
  %105 = call ptr @slurm_xcalloc(i64 noundef 1, i64 noundef 4, i1 noundef zeroext true, i1 noundef zeroext false, ptr noundef @.str.2, i32 noundef 117, ptr noundef @__func__._job_fake_cred)
  %106 = load ptr, ptr %4, align 8
  %107 = getelementptr inbounds nuw %struct.slurm_cred_arg_t, ptr %106, i32 0, i32 7
  store ptr %105, ptr %107, align 8
  %108 = load i32, ptr %3, align 4
  %109 = load ptr, ptr %4, align 8
  %110 = getelementptr inbounds nuw %struct.slurm_cred_arg_t, ptr %109, i32 0, i32 7
  %111 = load ptr, ptr %110, align 8
  %112 = getelementptr inbounds i32, ptr %111, i64 0
  store i32 %108, ptr %112, align 4
  %113 = load ptr, ptr %4, align 8
  %114 = call ptr @slurm_cred_faker(ptr noundef %113)
  %115 = load ptr, ptr %2, align 8
  %116 = getelementptr inbounds nuw %struct.slurm_step_ctx_struct, ptr %115, i32 0, i32 3
  %117 = load ptr, ptr %116, align 8
  %118 = getelementptr inbounds nuw %struct.job_step_create_response_msg, ptr %117, i32 0, i32 6
  store ptr %114, ptr %118, align 8
  %119 = load ptr, ptr %4, align 8
  %120 = getelementptr inbounds nuw %struct.slurm_cred_arg_t, ptr %119, i32 0, i32 19
  store ptr null, ptr %120, align 8
  %121 = load ptr, ptr %4, align 8
  %122 = getelementptr inbounds nuw %struct.slurm_cred_arg_t, ptr %121, i32 0, i32 39
  store ptr null, ptr %122, align 8
  %123 = load ptr, ptr %4, align 8
  call void @slurm_cred_free_args(ptr noundef %123)
  call void @llvm.lifetime.end.p0(i64 8, ptr %4) #7
  call void @llvm.lifetime.end.p0(i64 4, ptr %3) #7
  ret void
}

; Function Attrs: nounwind uwtable
define dso_local ptr @step_ctx_create_no_alloc(ptr noundef %0, i32 noundef %1) #0 {
  %3 = alloca ptr, align 8
  %4 = alloca ptr, align 8
  %5 = alloca i32, align 4
  %6 = alloca ptr, align 8
  %7 = alloca ptr, align 8
  %8 = alloca i32, align 4
  %9 = alloca i16, align 2
  %10 = alloca ptr, align 8
  %11 = alloca i32, align 4
  %12 = alloca i32, align 4
  store ptr %0, ptr %4, align 8
  store i32 %1, ptr %5, align 4
  call void @llvm.lifetime.start.p0(i64 8, ptr %6) #7
  store ptr null, ptr %6, align 8
  call void @llvm.lifetime.start.p0(i64 8, ptr %7) #7
  store ptr null, ptr %7, align 8
  call void @llvm.lifetime.start.p0(i64 4, ptr %8) #7
  store i32 -1, ptr %8, align 4
  call void @llvm.lifetime.start.p0(i64 2, ptr %9) #7
  store i16 0, ptr %9, align 2
  call void @llvm.lifetime.start.p0(i64 8, ptr %10) #7
  call void @llvm.lifetime.start.p0(i64 4, ptr %11) #7
  %13 = call ptr @slurm_get_srun_port_range()
  store ptr %13, ptr %10, align 8
  %14 = load ptr, ptr %10, align 8
  %15 = icmp ne ptr %14, null
  br i1 %15, label %16, label %19

16:                                               ; preds = %2
  %17 = load ptr, ptr %10, align 8
  %18 = call i32 @net_stream_listen_ports(ptr noundef %8, ptr noundef %9, ptr noundef %17, i1 noundef zeroext false)
  store i32 %18, ptr %11, align 4
  br label %21

19:                                               ; preds = %2
  %20 = call i32 @net_stream_listen(ptr noundef %8, ptr noundef %9)
  store i32 %20, ptr %11, align 4
  br label %21

21:                                               ; preds = %19, %16
  %22 = load i32, ptr %11, align 4
  %23 = icmp slt i32 %22, 0
  br i1 %23, label %24, label %26

24:                                               ; preds = %21
  %25 = call i32 (ptr, ...) @error(ptr noundef @.str.3)
  store ptr null, ptr %3, align 8
  store i32 1, ptr %12, align 4
  br label %87

26:                                               ; preds = %21
  %27 = load i16, ptr %9, align 2
  %28 = load ptr, ptr %4, align 8
  %29 = getelementptr inbounds nuw %struct.job_step_specs, ptr %28, i32 0, i32 23
  store i16 %27, ptr %29, align 2
  %30 = call ptr @slurm_xcalloc(i64 noundef 1, i64 noundef 72, i1 noundef zeroext true, i1 noundef zeroext false, ptr noundef @.str.2, i32 noundef 265, ptr noundef @__func__.step_ctx_create_no_alloc)
  store ptr %30, ptr %7, align 8
  %31 = load ptr, ptr %4, align 8
  %32 = getelementptr inbounds nuw %struct.job_step_specs, ptr %31, i32 0, i32 20
  %33 = load ptr, ptr %32, align 8
  %34 = load ptr, ptr %4, align 8
  %35 = getelementptr inbounds nuw %struct.job_step_specs, ptr %34, i32 0, i32 17
  %36 = load i32, ptr %35, align 8
  %37 = load ptr, ptr %4, align 8
  %38 = getelementptr inbounds nuw %struct.job_step_specs, ptr %37, i32 0, i32 21
  %39 = load i32, ptr %38, align 8
  %40 = call ptr @fake_slurm_step_layout_create(ptr noundef %33, ptr noundef null, ptr noundef null, i32 noundef %36, i32 noundef %39, i16 noundef zeroext 0)
  %41 = load ptr, ptr %7, align 8
  %42 = getelementptr inbounds nuw %struct.job_step_create_response_msg, ptr %41, i32 0, i32 4
  store ptr %40, ptr %42, align 8
  %43 = load i32, ptr %5, align 4
  %44 = load ptr, ptr %7, align 8
  %45 = getelementptr inbounds nuw %struct.job_step_create_response_msg, ptr %44, i32 0, i32 2
  store i32 %43, ptr %45, align 8
  %46 = call ptr @slurm_xcalloc(i64 noundef 1, i64 noundef 40, i1 noundef zeroext true, i1 noundef zeroext false, ptr noundef @.str.2, i32 noundef 276, ptr noundef @__func__.step_ctx_create_no_alloc)
  store ptr %46, ptr %6, align 8
  %47 = load ptr, ptr %6, align 8
  %48 = getelementptr inbounds nuw %struct.slurm_step_ctx_struct, ptr %47, i32 0, i32 4
  store ptr null, ptr %48, align 8
  %49 = load ptr, ptr %6, align 8
  %50 = getelementptr inbounds nuw %struct.slurm_step_ctx_struct, ptr %49, i32 0, i32 0
  store i16 -14429, ptr %50, align 8
  %51 = load ptr, ptr %4, align 8
  %52 = getelementptr inbounds nuw %struct.job_step_specs, ptr %51, i32 0, i32 28
  %53 = getelementptr inbounds nuw %struct.slurm_step_id_msg, ptr %52, i32 0, i32 1
  %54 = load i32, ptr %53, align 8
  %55 = load ptr, ptr %6, align 8
  %56 = getelementptr inbounds nuw %struct.slurm_step_ctx_struct, ptr %55, i32 0, i32 1
  store i32 %54, ptr %56, align 4
  %57 = load ptr, ptr %4, align 8
  %58 = load ptr, ptr %6, align 8
  %59 = getelementptr inbounds nuw %struct.slurm_step_ctx_struct, ptr %58, i32 0, i32 2
  store ptr %57, ptr %59, align 8
  %60 = load ptr, ptr %4, align 8
  %61 = getelementptr inbounds nuw %struct.job_step_specs, ptr %60, i32 0, i32 28
  %62 = getelementptr inbounds nuw %struct.slurm_step_id_msg, ptr %61, i32 0, i32 3
  %63 = load i32, ptr %62, align 8
  %64 = icmp eq i32 %63, -2
  br i1 %64, label %65, label %72

65:                                               ; preds = %26
  %66 = load ptr, ptr %7, align 8
  %67 = getelementptr inbounds nuw %struct.job_step_create_response_msg, ptr %66, i32 0, i32 2
  %68 = load i32, ptr %67, align 8
  %69 = load ptr, ptr %4, align 8
  %70 = getelementptr inbounds nuw %struct.job_step_specs, ptr %69, i32 0, i32 28
  %71 = getelementptr inbounds nuw %struct.slurm_step_id_msg, ptr %70, i32 0, i32 3
  store i32 %68, ptr %71, align 8
  br label %72

72:                                               ; preds = %65, %26
  %73 = load ptr, ptr %7, align 8
  %74 = load ptr, ptr %6, align 8
  %75 = getelementptr inbounds nuw %struct.slurm_step_ctx_struct, ptr %74, i32 0, i32 3
  store ptr %73, ptr %75, align 8
  %76 = load ptr, ptr %6, align 8
  %77 = call ptr @step_launch_state_create(ptr noundef %76)
  %78 = load ptr, ptr %6, align 8
  %79 = getelementptr inbounds nuw %struct.slurm_step_ctx_struct, ptr %78, i32 0, i32 4
  store ptr %77, ptr %79, align 8
  %80 = load i32, ptr %8, align 4
  %81 = load ptr, ptr %6, align 8
  %82 = getelementptr inbounds nuw %struct.slurm_step_ctx_struct, ptr %81, i32 0, i32 4
  %83 = load ptr, ptr %82, align 8
  %84 = getelementptr inbounds nuw %struct.step_launch_state, ptr %83, i32 0, i32 16
  store i32 %80, ptr %84, align 8
  %85 = load ptr, ptr %6, align 8
  call void @_job_fake_cred(ptr noundef %85)
  %86 = load ptr, ptr %6, align 8
  store ptr %86, ptr %3, align 8
  store i32 1, ptr %12, align 4
  br label %87

87:                                               ; preds = %72, %24
  call void @llvm.lifetime.end.p0(i64 4, ptr %11) #7
  call void @llvm.lifetime.end.p0(i64 8, ptr %10) #7
  call void @llvm.lifetime.end.p0(i64 2, ptr %9) #7
  call void @llvm.lifetime.end.p0(i64 4, ptr %8) #7
  call void @llvm.lifetime.end.p0(i64 8, ptr %7) #7
  call void @llvm.lifetime.end.p0(i64 8, ptr %6) #7
  %88 = load ptr, ptr %3, align 8
  ret ptr %88
}