; Function Attrs: nounwind uwtable
define dso_local noundef ptr @step_ctx_create_no_alloc(ptr noundef %0, i32 noundef %1) local_unnamed_addr #0 {
  %3 = alloca i32, align 4
  %4 = alloca i16, align 2
  call void @llvm.lifetime.start.p0(i64 4, ptr nonnull %3) #8
  store i32 -1, ptr %3, align 4
  call void @llvm.lifetime.start.p0(i64 2, ptr nonnull %4) #8
  store i16 0, ptr %4, align 2
  %5 = tail call ptr @slurm_get_srun_port_range() #8
  %.not = icmp eq ptr %5, null
  br i1 %.not, label %8, label %6

6:                                                ; preds = %2
  %7 = call i32 @net_stream_listen_ports(ptr noundef nonnull %3, ptr noundef nonnull %4, ptr noundef nonnull %5, i1 noundef zeroext false) #8
  br label %10

8:                                                ; preds = %2
  %9 = call i32 @net_stream_listen(ptr noundef nonnull %3, ptr noundef nonnull %4) #8
  br label %10

10:                                               ; preds = %8, %6
  %.0 = phi i32 [ %7, %6 ], [ %9, %8 ]
  %11 = icmp slt i32 %.0, 0
  br i1 %11, label %12, label %14

12:                                               ; preds = %10
  %13 = call i32 (ptr, ...) @error(ptr noundef nonnull @.str.3) #8
  br label %88

14:                                               ; preds = %10
  %15 = load i16, ptr %4, align 2
  %16 = getelementptr inbounds nuw i8, ptr %0, i64 142
  store i16 %15, ptr %16, align 2
  %17 = call ptr @slurm_xcalloc(i64 noundef 1, i64 noundef 72, i1 noundef zeroext true, i1 noundef zeroext false, ptr noundef nonnull @.str.2, i32 noundef 265, ptr noundef nonnull @__func__.step_ctx_create_no_alloc) #8
  %18 = getelementptr inbounds nuw i8, ptr %0, i64 128
  %19 = load ptr, ptr %18, align 8
  %20 = getelementptr inbounds nuw i8, ptr %0, i64 112
  %21 = load i32, ptr %20, align 8
  %22 = getelementptr inbounds nuw i8, ptr %0, i64 136
  %23 = load i32, ptr %22, align 8
  %24 = call ptr @fake_slurm_step_layout_create(ptr noundef %19, ptr noundef null, ptr noundef null, i32 noundef %21, i32 noundef %23, i16 noundef zeroext 0) #8
  %25 = getelementptr inbounds nuw i8, ptr %17, i64 24
  store ptr %24, ptr %25, align 8
  %26 = getelementptr inbounds nuw i8, ptr %17, i64 8
  store i32 %1, ptr %26, align 8
  %27 = call ptr @slurm_xcalloc(i64 noundef 1, i64 noundef 40, i1 noundef zeroext true, i1 noundef zeroext false, ptr noundef nonnull @.str.2, i32 noundef 276, ptr noundef nonnull @__func__.step_ctx_create_no_alloc) #8
  %28 = getelementptr inbounds nuw i8, ptr %27, i64 24
  store ptr null, ptr %28, align 8
  store i16 -14429, ptr %27, align 8
  %29 = getelementptr inbounds nuw i8, ptr %0, i64 168
  %30 = load i32, ptr %29, align 8
  %31 = getelementptr inbounds nuw i8, ptr %27, i64 4
  store i32 %30, ptr %31, align 4
  %32 = getelementptr inbounds nuw i8, ptr %27, i64 8
  store ptr %0, ptr %32, align 8
  %33 = getelementptr inbounds nuw i8, ptr %0, i64 176
  %34 = load i32, ptr %33, align 8
  %35 = icmp eq i32 %34, -2
  br i1 %35, label %36, label %38

36:                                               ; preds = %14
  %37 = load i32, ptr %26, align 8
  store i32 %37, ptr %33, align 8
  br label %38

38:                                               ; preds = %36, %14
  %39 = getelementptr inbounds nuw i8, ptr %27, i64 16
  store ptr %17, ptr %39, align 8
  %40 = call ptr @step_launch_state_create(ptr noundef nonnull %27) #8
  store ptr %40, ptr %28, align 8
  %41 = load i32, ptr %3, align 4
  %42 = getelementptr inbounds nuw i8, ptr %40, i64 176
  store i32 %41, ptr %42, align 8
  %43 = load ptr, ptr %39, align 8
  %44 = getelementptr inbounds nuw i8, ptr %43, i64 24
  %45 = load ptr, ptr %44, align 8
  %46 = getelementptr inbounds nuw i8, ptr %45, i64 40
  %47 = load i32, ptr %46, align 8
  %48 = call ptr @slurm_xcalloc(i64 noundef 1, i64 noundef 352, i1 noundef zeroext true, i1 noundef zeroext false, ptr noundef nonnull @.str.2, i32 noundef 88, ptr noundef nonnull @__func__._job_fake_cred) #8
  %49 = load ptr, ptr %32, align 8
  %50 = getelementptr inbounds nuw i8, ptr %49, i64 160
  call void @llvm.memcpy.p0.p0.i64(ptr noundef nonnull align 8 dereferenceable(24) %48, ptr noundef nonnull align 8 dereferenceable(24) %50, i64 24, i1 false)
  %51 = call i32 @getuid() #8
  %52 = getelementptr inbounds nuw i8, ptr %48, i64 24
  store i32 %51, ptr %52, align 8
  %53 = getelementptr inbounds nuw i8, ptr %48, i64 196
  store i32 %47, ptr %53, align 4
  %54 = load ptr, ptr %39, align 8
  %55 = getelementptr inbounds nuw i8, ptr %54, i64 24
  %56 = load ptr, ptr %55, align 8
  %57 = getelementptr inbounds nuw i8, ptr %56, i64 48
  %58 = load ptr, ptr %57, align 8
  %59 = getelementptr inbounds nuw i8, ptr %48, i64 160
  store ptr %58, ptr %59, align 8
  %60 = call ptr @slurm_xcalloc(i64 noundef 1, i64 noundef 8, i1 noundef zeroext true, i1 noundef zeroext false, ptr noundef nonnull @.str.2, i32 noundef 95, ptr noundef nonnull @__func__._job_fake_cred) #8
  %61 = getelementptr inbounds nuw i8, ptr %48, i64 176
  store ptr %60, ptr %61, align 8
  store i64 0, ptr %60, align 8
  %62 = call ptr @slurm_xcalloc(i64 noundef 1, i64 noundef 8, i1 noundef zeroext true, i1 noundef zeroext false, ptr noundef nonnull @.str.2, i32 noundef 97, ptr noundef nonnull @__func__._job_fake_cred) #8
  %63 = getelementptr inbounds nuw i8, ptr %48, i64 184
  store ptr %62, ptr %63, align 8
  store i32 %47, ptr %62, align 4
  %64 = getelementptr inbounds nuw i8, ptr %48, i64 192
  store i32 1, ptr %64, align 8
  %65 = load ptr, ptr %32, align 8
  %66 = getelementptr inbounds nuw i8, ptr %65, i64 128
  %67 = load ptr, ptr %66, align 8
  %68 = getelementptr inbounds nuw i8, ptr %48, i64 304
  store ptr %67, ptr %68, align 8
  %69 = call ptr @slurm_xcalloc(i64 noundef 1, i64 noundef 8, i1 noundef zeroext true, i1 noundef zeroext false, ptr noundef nonnull @.str.2, i32 noundef 102, ptr noundef nonnull @__func__._job_fake_cred) #8
  %70 = getelementptr inbounds nuw i8, ptr %48, i64 312
  store ptr %69, ptr %70, align 8
  store i64 0, ptr %69, align 8
  %71 = call ptr @slurm_xcalloc(i64 noundef 1, i64 noundef 8, i1 noundef zeroext true, i1 noundef zeroext false, ptr noundef nonnull @.str.2, i32 noundef 104, ptr noundef nonnull @__func__._job_fake_cred) #8
  %72 = getelementptr inbounds nuw i8, ptr %48, i64 320
  store ptr %71, ptr %72, align 8
  store i32 %47, ptr %71, align 4
  %73 = getelementptr inbounds nuw i8, ptr %48, i64 328
  store i32 1, ptr %73, align 8
  %74 = zext i32 %47 to i64
  %75 = call ptr @bit_alloc(i64 noundef %74) #8
  %76 = getelementptr inbounds nuw i8, ptr %48, i64 128
  store ptr %75, ptr %76, align 8
  call void @bit_set_all(ptr noundef %75) #8
  %77 = call ptr @bit_alloc(i64 noundef %74) #8
  %78 = getelementptr inbounds nuw i8, ptr %48, i64 296
  store ptr %77, ptr %78, align 8
  call void @bit_set_all(ptr noundef %77) #8
  %79 = call ptr @slurm_xcalloc(i64 noundef 1, i64 noundef 2, i1 noundef zeroext true, i1 noundef zeroext false, ptr noundef nonnull @.str.2, i32 noundef 113, ptr noundef nonnull @__func__._job_fake_cred) #8
  %80 = getelementptr inbounds nuw i8, ptr %48, i64 48
  store ptr %79, ptr %80, align 8
  store i16 1, ptr %79, align 2
  %81 = call ptr @slurm_xcalloc(i64 noundef 1, i64 noundef 2, i1 noundef zeroext true, i1 noundef zeroext false, ptr noundef nonnull @.str.2, i32 noundef 115, ptr noundef nonnull @__func__._job_fake_cred) #8
  %82 = getelementptr inbounds nuw i8, ptr %48, i64 56
  store ptr %81, ptr %82, align 8
  store i16 1, ptr %81, align 2
  %83 = call ptr @slurm_xcalloc(i64 noundef 1, i64 noundef 4, i1 noundef zeroext true, i1 noundef zeroext false, ptr noundef nonnull @.str.2, i32 noundef 117, ptr noundef nonnull @__func__._job_fake_cred) #8
  %84 = getelementptr inbounds nuw i8, ptr %48, i64 64
  store ptr %83, ptr %84, align 8
  store i32 %47, ptr %83, align 4
  %85 = call ptr @slurm_cred_faker(ptr noundef nonnull %48) #8
  %86 = load ptr, ptr %39, align 8
  %87 = getelementptr inbounds nuw i8, ptr %86, i64 40
  store ptr %85, ptr %87, align 8
  store ptr null, ptr %59, align 8
  store ptr null, ptr %68, align 8
  call void @slurm_cred_free_args(ptr noundef nonnull %48) #8
  br label %88

88:                                               ; preds = %38, %12
  %.026 = phi ptr [ null, %12 ], [ %27, %38 ]
  call void @llvm.lifetime.end.p0(i64 2, ptr nonnull %4) #8
  call void @llvm.lifetime.end.p0(i64 4, ptr nonnull %3) #8
  ret ptr %.026
}